; Function Attrs: null_pointer_is_valid sspstrong uwtable
define hidden i32 @dissect_ngap_SecondaryRATDataUsageReportTransfer(ptr noundef %0, i32 noundef %1, ptr noundef %2, ptr noundef %3, i32 noundef %4) local_unnamed_addr #0 {
  %6 = getelementptr inbounds nuw i8, ptr %2, i64 16
  %7 = load ptr, ptr %6, align 8
  %8 = getelementptr inbounds nuw i8, ptr %7, i64 408
  %9 = load ptr, ptr %8, align 8
  %10 = load i32, ptr @proto_json, align 4
  %11 = tail call ptr @p_get_proto_data(ptr noundef %9, ptr noundef %7, i32 noundef %10, i32 noundef 0)
  %.not = icmp eq ptr %11, null
  br i1 %.not, label %16, label %12

12:                                               ; preds = %5
  %13 = load ptr, ptr %6, align 8
  %14 = getelementptr inbounds nuw i8, ptr %13, i64 8
  %15 = load ptr, ptr %14, align 8
  tail call void @col_append_sep_str(ptr noundef %15, i32 noundef 25, ptr noundef null, ptr noundef nonnull @.str)
  br label %16

16:                                               ; preds = %12, %5
  %17 = load i32, ptr @ett_ngap_SecondaryRATDataUsageReportTransfer, align 4
  %18 = tail call i32 @dissect_per_sequence(ptr noundef %0, i32 noundef %1, ptr noundef %2, ptr noundef %3, i32 noundef %4, i32 noundef %17, ptr noundef nonnull @SecondaryRATDataUsageReportTransfer_sequence)
  ret i32 %18
}